target datalayout = "e-m:e-p270:32:32-p271:32:32-p272:64:64-i64:64-i128:128-f80:128-n8:16:32:64-S128"
target triple = "x86_64-pc-linux-gnu"

%struct.anon = type { ptr, i64 }

; Function Attrs: mustprogress nounwind uwtable
define internal void @"_ZN4absl12lts_2024072222internal_any_invocable23RemoteManagerNontrivialIZZN17grpc_event_engine12experimental18ThreadyEventEngine14CreateListenerENS0_12AnyInvocableIFvSt10unique_ptrINS4_11EventEngine8EndpointESt14default_deleteIS9_EENS4_15MemoryAllocatorEEEENS6_IFvNS0_6StatusEEEERKNS4_14EndpointConfigES7_INS4_22MemoryAllocatorFactoryESA_ISM_EEENK3$_0clESC_SD_EUlvE_EEvNS1_14FunctionToCallEPNS1_15TypeErasedStateEST_"(i1 noundef zeroext %0, ptr noundef %1, ptr noundef %2) #6 {
  %4 = alloca i8, align 1
  %5 = alloca ptr, align 8
  %6 = alloca ptr, align 8
  %7 = zext i1 %0 to i8
  store i8 %7, ptr %4, align 1, !tbaa !169
  store ptr %1, ptr %5, align 8, !tbaa !171
  store ptr %2, ptr %6, align 8, !tbaa !171
  %8 = load i8, ptr %4, align 1, !tbaa !169, !range !19, !noundef !20
  %9 = trunc i8 %8 to i1
  switch i1 %9, label %23 [
    i1 false, label %10
    i1 true, label %16
  ]

10:                                               ; preds = %3
  %11 = load ptr, ptr %5, align 8, !tbaa !171
  %12 = getelementptr inbounds nuw %struct.anon, ptr %11, i32 0, i32 0
  %13 = load ptr, ptr %12, align 16, !tbaa !98
  %14 = load ptr, ptr %6, align 8, !tbaa !171
  %15 = getelementptr inbounds nuw %struct.anon, ptr %14, i32 0, i32 0
  store ptr %13, ptr %15, align 16, !tbaa !98
  br label %26

16:                                               ; preds = %3
  %17 = load ptr, ptr %5, align 8, !tbaa !171
  %18 = getelementptr inbounds nuw %struct.anon, ptr %17, i32 0, i32 0
  %19 = load ptr, ptr %18, align 16, !tbaa !98
  %20 = icmp eq ptr %19, null
  br i1 %20, label %22, label %21

21:                                               ; preds = %16
  call void @"_ZZZN17grpc_event_engine12experimental18ThreadyEventEngine14CreateListenerEN4absl12lts_2024072212AnyInvocableIFvSt10unique_ptrINS0_11EventEngine8EndpointESt14default_deleteIS7_EENS0_15MemoryAllocatorEEEENS4_IFvNS3_6StatusEEEERKNS0_14EndpointConfigES5_INS0_22MemoryAllocatorFactoryES8_ISK_EEENK3$_0clESA_SB_ENUlvE_D2Ev"(ptr noundef nonnull align 8 dereferenceable(56) %19) #3
  call void @_ZdlPvm(ptr noundef %19, i64 noundef 56) #26
  br label %22

22:                                               ; preds = %21, %16
  br label %26

23:                                               ; preds = %3
  br label %24

24:                                               ; preds = %23
  unreachable

25:                                               ; No predecessors!
  br label %26

26:                                               ; preds = %10, %22, %25
  ret void
}