; Function Attrs: mustprogress nounwind uwtable
define internal void @"_ZN4absl12lts_2024072222internal_any_invocable23RemoteManagerNontrivialIZZN17grpc_event_engine12experimental18ThreadyEventEngine14CreateListenerENS0_12AnyInvocableIFvSt10unique_ptrINS4_11EventEngine8EndpointESt14default_deleteIS9_EENS4_15MemoryAllocatorEEEENS6_IFvNS0_6StatusEEEERKNS4_14EndpointConfigES7_INS4_22MemoryAllocatorFactoryESA_ISM_EEENK3$_0clESC_SD_EUlvE_EEvNS1_14FunctionToCallEPNS1_15TypeErasedStateEST_"(i1 noundef zeroext %0, ptr noundef readonly captures(none) %1, ptr noundef writeonly captures(none) %2) #5 {
  %4 = load ptr, ptr %1, align 16, !tbaa !50
  br i1 %0, label %6, label %5

5:                                                ; preds = %3
  store ptr %4, ptr %2, align 16, !tbaa !50
  br label %9

6:                                                ; preds = %3
  %7 = icmp eq ptr %4, null
  br i1 %7, label %9, label %8

8:                                                ; preds = %6
  tail call fastcc void @"_ZZZN17grpc_event_engine12experimental18ThreadyEventEngine14CreateListenerEN4absl12lts_2024072212AnyInvocableIFvSt10unique_ptrINS0_11EventEngine8EndpointESt14default_deleteIS7_EENS0_15MemoryAllocatorEEEENS4_IFvNS3_6StatusEEEERKNS0_14EndpointConfigES5_INS0_22MemoryAllocatorFactoryES8_ISK_EEENK3$_0clESA_SB_ENUlvE_D2Ev"(ptr noundef nonnull align 8 dereferenceable(56) %4) #26
  tail call void @_ZdlPvm(ptr noundef nonnull %4, i64 noundef 56) #31
  br label %9

9:                                                ; preds = %6, %8, %5
  ret void
}